target datalayout = "e-m:e-p270:32:32-p271:32:32-p272:64:64-i64:64-i128:128-f80:128-n8:16:32:64-S128"
target triple = "x86_64-pc-linux-gnu"

%struct._zend_array = type { %struct._zend_refcounted_h, %union.anon.0, i32, %union.anon.1, i32, i32, i32, i32, i64, ptr }
%struct._zend_refcounted_h = type { i32, %union.anon }
%union.anon = type { i32 }
%union.anon.0 = type { i32 }
%union.anon.1 = type { ptr }
%struct._zval_struct = type { %union._zend_value, %union.anon.3, %union.anon.6 }
%union._zend_value = type { i64 }
%union.anon.3 = type { i32 }
%union.anon.6 = type { i32 }
%struct._Bucket = type { %struct._zval_struct, i64, ptr }

; Function Attrs: nounwind uwtable
define i32 @zend_hash_get_current_pos(ptr noundef %0) #0 {
  %2 = alloca ptr, align 8
  %3 = alloca ptr, align 8
  %4 = alloca ptr, align 8
  %5 = alloca i32, align 4
  %6 = alloca ptr, align 8
  %7 = alloca ptr, align 8
  store ptr %0, ptr %7, align 8
  %8 = load ptr, ptr %7, align 8
  store ptr %8, ptr %6, align 8
  %9 = load ptr, ptr %6, align 8
  %10 = load ptr, ptr %6, align 8
  %11 = getelementptr inbounds %struct._zend_array, ptr %10, i32 0, i32 7
  %12 = load i32, ptr %11, align 4
  store ptr %9, ptr %4, align 8
  store i32 %12, ptr %5, align 4
  %13 = load ptr, ptr %4, align 8
  %14 = getelementptr inbounds %struct._zend_array, ptr %13, i32 0, i32 1
  %15 = load i32, ptr %14, align 8
  %16 = and i32 %15, 4
  %17 = icmp ne i32 %16, 0
  br i1 %17, label %18, label %43

18:                                               ; preds = %1
  br label %19

19:                                               ; preds = %39, %18
  %20 = load i32, ptr %5, align 4
  %21 = load ptr, ptr %4, align 8
  %22 = getelementptr inbounds %struct._zend_array, ptr %21, i32 0, i32 4
  %23 = load i32, ptr %22, align 8
  %24 = icmp ult i32 %20, %23
  br i1 %24, label %25, label %37

25:                                               ; preds = %19
  %26 = load ptr, ptr %4, align 8
  %27 = getelementptr inbounds %struct._zend_array, ptr %26, i32 0, i32 3
  %28 = load ptr, ptr %27, align 8
  %29 = load i32, ptr %5, align 4
  %30 = zext i32 %29 to i64
  %31 = getelementptr inbounds %struct._zval_struct, ptr %28, i64 %30
  store ptr %31, ptr %2, align 8
  %32 = load ptr, ptr %2, align 8
  %33 = getelementptr inbounds %struct._zval_struct, ptr %32, i32 0, i32 1
  %34 = load i8, ptr %33, align 8
  %35 = zext i8 %34 to i32
  %36 = icmp eq i32 %35, 0
  br label %37

37:                                               ; preds = %25, %19
  %38 = phi i1 [ false, %19 ], [ %36, %25 ]
  br i1 %38, label %39, label %42

39:                                               ; preds = %37
  %40 = load i32, ptr %5, align 4
  %41 = add i32 %40, 1
  store i32 %41, ptr %5, align 4
  br label %19

42:                                               ; preds = %37
  br label %68

43:                                               ; preds = %1
  br label %44

44:                                               ; preds = %64, %43
  %45 = load i32, ptr %5, align 4
  %46 = load ptr, ptr %4, align 8
  %47 = getelementptr inbounds %struct._zend_array, ptr %46, i32 0, i32 4
  %48 = load i32, ptr %47, align 8
  %49 = icmp ult i32 %45, %48
  br i1 %49, label %50, label %62

50:                                               ; preds = %44
  %51 = load ptr, ptr %4, align 8
  %52 = getelementptr inbounds %struct._zend_array, ptr %51, i32 0, i32 3
  %53 = load ptr, ptr %52, align 8
  %54 = load i32, ptr %5, align 4
  %55 = zext i32 %54 to i64
  %56 = getelementptr inbounds %struct._Bucket, ptr %53, i64 %55
  store ptr %56, ptr %3, align 8
  %57 = load ptr, ptr %3, align 8
  %58 = getelementptr inbounds %struct._zval_struct, ptr %57, i32 0, i32 1
  %59 = load i8, ptr %58, align 8
  %60 = zext i8 %59 to i32
  %61 = icmp eq i32 %60, 0
  br label %62

62:                                               ; preds = %50, %44
  %63 = phi i1 [ false, %44 ], [ %61, %50 ]
  br i1 %63, label %64, label %67

64:                                               ; preds = %62
  %65 = load i32, ptr %5, align 4
  %66 = add i32 %65, 1
  store i32 %66, ptr %5, align 4
  br label %44

67:                                               ; preds = %62
  br label %68

68:                                               ; preds = %67, %42
  %69 = load i32, ptr %5, align 4
  ret i32 %69
}