; Function Attrs: nofree norecurse nosync nounwind memory(read, inaccessiblemem: none) uwtable
define i32 @zend_hash_get_current_pos(ptr nocapture noundef readonly %0) local_unnamed_addr #12 {
  %2 = getelementptr inbounds i8, ptr %0, i64 36
  %3 = load i32, ptr %2, align 4
  %4 = getelementptr inbounds i8, ptr %0, i64 8
  %5 = load i32, ptr %4, align 8
  %6 = and i32 %5, 4
  %.not = icmp eq i32 %6, 0
  %7 = getelementptr inbounds i8, ptr %0, i64 24
  %8 = load i32, ptr %7, align 8
  %9 = icmp ult i32 %3, %8
  br i1 %.not, label %.preheader, label %.preheader18

.preheader18:                                     ; preds = %1
  br i1 %9, label %.lr.ph, label %.critedge

.lr.ph:                                           ; preds = %.preheader18
  %10 = getelementptr inbounds i8, ptr %0, i64 16
  %11 = load ptr, ptr %10, align 8
  %12 = zext i32 %3 to i64
  br label %16

.preheader:                                       ; preds = %1
  br i1 %9, label %.lr.ph24, label %.critedge

.lr.ph24:                                         ; preds = %.preheader
  %13 = getelementptr inbounds i8, ptr %0, i64 16
  %14 = load ptr, ptr %13, align 8
  %15 = zext i32 %3 to i64
  br label %21

16:                                               ; preds = %.lr.ph, %20
  %indvars.iv = phi i64 [ %12, %.lr.ph ], [ %indvars.iv.next, %20 ]
  %17 = getelementptr inbounds %struct._zval_struct, ptr %11, i64 %indvars.iv, i32 1
  %18 = load i8, ptr %17, align 8
  %19 = icmp eq i8 %18, 0
  br i1 %19, label %20, label %.critedge.loopexit36.split.loop.exit

20:                                               ; preds = %16
  %indvars.iv.next = add nuw nsw i64 %indvars.iv, 1
  %lftr.wideiv = trunc i64 %indvars.iv.next to i32
  %exitcond.not = icmp eq i32 %8, %lftr.wideiv
  br i1 %exitcond.not, label %.critedge, label %16

21:                                               ; preds = %.lr.ph24, %25
  %indvars.iv31 = phi i64 [ %15, %.lr.ph24 ], [ %indvars.iv.next32, %25 ]
  %22 = getelementptr inbounds %struct._Bucket, ptr %14, i64 %indvars.iv31, i32 0, i32 1
  %23 = load i8, ptr %22, align 8
  %24 = icmp eq i8 %23, 0
  br i1 %24, label %25, label %.critedge.loopexit.split.loop.exit

25:                                               ; preds = %21
  %indvars.iv.next32 = add nuw nsw i64 %indvars.iv31, 1
  %lftr.wideiv34 = trunc i64 %indvars.iv.next32 to i32
  %exitcond35.not = icmp eq i32 %8, %lftr.wideiv34
  br i1 %exitcond35.not, label %.critedge, label %21

.critedge.loopexit.split.loop.exit:               ; preds = %21
  %26 = trunc i64 %indvars.iv31 to i32
  br label %.critedge

.critedge.loopexit36.split.loop.exit:             ; preds = %16
  %27 = trunc i64 %indvars.iv to i32
  br label %.critedge

.critedge:                                        ; preds = %20, %25, %.critedge.loopexit36.split.loop.exit, %.critedge.loopexit.split.loop.exit, %.preheader18, %.preheader
  %.2 = phi i32 [ %3, %.preheader ], [ %3, %.preheader18 ], [ %26, %.critedge.loopexit.split.loop.exit ], [ %27, %.critedge.loopexit36.split.loop.exit ], [ %8, %25 ], [ %8, %20 ]
  ret i32 %.2
}